; Function Attrs: mustprogress uwtable
define noundef double @_ZNK8QuantLib15LinearTsrPricer13meanReversionEv(ptr noundef nonnull align 8 dereferenceable(360) %this) unnamed_addr #7 align 2 {
entry:
  %meanReversion_ = getelementptr inbounds nuw i8, ptr %this, i64 48
  %call = tail call noundef nonnull align 8 dereferenceable(16) ptr @_ZNK8QuantLib6HandleINS_5QuoteEEptEv(ptr noundef nonnull align 8 dereferenceable(16) %meanReversion_)
  %0 = load ptr, ptr %call, align 8, !tbaa !87
  %cmp.not.i = icmp eq ptr %0, null
  br i1 %cmp.not.i, label %cond.false.i, label %_ZNK5boost10shared_ptrIN8QuantLib5QuoteEEptEv.exit, !prof !58

cond.false.i:                                     ; preds = %entry
  tail call void @_ZN5boost16assertion_failedEPKcS1_S1_l(ptr noundef nonnull @.str.15, ptr noundef nonnull @__PRETTY_FUNCTION__._ZNK5boost10shared_ptrIN8QuantLib5QuoteEEptEv, ptr noundef nonnull @.str.16, i64 noundef 784)
  %.pre.i = load ptr, ptr %call, align 8, !tbaa !87
  br label %_ZNK5boost10shared_ptrIN8QuantLib5QuoteEEptEv.exit

_ZNK5boost10shared_ptrIN8QuantLib5QuoteEEptEv.exit: ; preds = %entry, %cond.false.i
  %1 = phi ptr [ %0, %entry ], [ %.pre.i, %cond.false.i ]
  %vtable = load ptr, ptr %1, align 8, !tbaa !35
  %vfn = getelementptr inbounds i8, ptr %vtable, i64 16
  %2 = load ptr, ptr %vfn, align 8
  %call3 = tail call noundef double %2(ptr noundef nonnull align 8 dereferenceable(8) %1)
  ret double %call3
}